; Function Attrs: mustprogress uwtable
define void @_Z19ucasemap_mapUTF8_77ijPN6icu_7713BreakIteratorEPKciPFvijS1_PKhiRNS_8ByteSinkEPNS_5EditsER10UErrorCodeES7_S9_SB_(i32 noundef %0, i32 noundef %1, ptr noundef %2, ptr noundef %3, i32 noundef %4, ptr noundef readonly captures(none) %5, ptr noundef nonnull align 8 dereferenceable(8) %6, ptr noundef %7, ptr noundef nonnull align 4 dereferenceable(4) %8) local_unnamed_addr #1 {
  %10 = load i32, ptr %8, align 4, !tbaa !13
  %11 = icmp slt i32 %10, 1
  br i1 %11, label %12, label %35

12:                                               ; preds = %9
  %13 = icmp eq ptr %3, null
  %14 = icmp ne i32 %4, 0
  %or.cond = and i1 %13, %14
  %15 = icmp slt i32 %4, -1
  %or.cond3 = or i1 %15, %or.cond
  br i1 %or.cond3, label %16, label %17

16:                                               ; preds = %12
  store i32 1, ptr %8, align 4, !tbaa !13
  br label %35

17:                                               ; preds = %12
  %18 = icmp eq i32 %4, -1
  br i1 %18, label %19, label %22

19:                                               ; preds = %17
  %20 = tail call i64 @strlen(ptr noundef nonnull dereferenceable(1) %3) #20
  %21 = trunc i64 %20 to i32
  br label %22

22:                                               ; preds = %19, %17
  %.0 = phi i32 [ %21, %19 ], [ %4, %17 ]
  %23 = icmp ne ptr %7, null
  %24 = and i32 %1, 8192
  %25 = icmp eq i32 %24, 0
  %or.cond31 = and i1 %25, %23
  br i1 %or.cond31, label %26, label %27

26:                                               ; preds = %22
  tail call void @_ZN6icu_775Edits5resetEv(ptr noundef nonnull align 8 dereferenceable(232) %7) #17
  br label %27

27:                                               ; preds = %26, %22
  tail call void %5(i32 noundef %0, i32 noundef %1, ptr noundef %2, ptr noundef %3, i32 noundef %.0, ptr noundef nonnull align 8 dereferenceable(8) %6, ptr noundef %7, ptr noundef nonnull align 4 dereferenceable(4) %8)
  %28 = load ptr, ptr %6, align 8, !tbaa !21
  %29 = getelementptr inbounds nuw i8, ptr %28, i64 32
  %30 = load ptr, ptr %29, align 8
  tail call void %30(ptr noundef nonnull align 8 dereferenceable(8) %6)
  %31 = load i32, ptr %8, align 4, !tbaa !13
  %32 = icmp slt i32 %31, 1
  %or.cond5 = and i1 %23, %32
  br i1 %or.cond5, label %33, label %35

33:                                               ; preds = %27
  %34 = tail call noundef signext i8 @_ZNK6icu_775Edits11copyErrorToER10UErrorCode(ptr noundef nonnull align 8 dereferenceable(232) %7, ptr noundef nonnull align 4 dereferenceable(4) %8)
  br label %35

35:                                               ; preds = %33, %9, %27, %16
  ret void
}